(dp1
S'output'
p2
S"<type 'exceptions.NameError'> global name 'tabla' is not defined"
p3
sS'layer'
p4
S'/home/jose/Escritorio/web2py/applications/scada/controllers/default.py'
p5
sS'code'
p6
S'# -*- coding: utf-8 -*-\n# this file is released under public domain and you can use without limitations\n\n#########################################################################\n## This is a sample controller\n## - index is the default action of any application\n## - user is required for authentication and authorization\n## - download is for downloading files uploaded in the db (does streaming)\n#########################################################################\n\ndef index():\n    datos = None\n\n    return dict(datos=tabla)\n\n\ndef user():\n    """\n    exposes:\n    http://..../[app]/default/user/login\n    http://..../[app]/default/user/logout\n    http://..../[app]/default/user/register\n    http://..../[app]/default/user/profile\n    http://..../[app]/default/user/retrieve_password\n    http://..../[app]/default/user/change_password\n    http://..../[app]/default/user/manage_users (requires membership in\n    http://..../[app]/default/user/bulk_register\n    use @auth.requires_login()\n        @auth.requires_membership(\'group name\')\n        @auth.requires_permission(\'read\',\'table name\',record_id)\n    to decorate functions that need access control\n    """\n    return dict(form=auth())\n\n\n@cache.action()\ndef download():\n    """\n    allows downloading of uploaded files\n    http://..../[app]/default/download/[filename]\n    """\n    return response.download(request, db)\n\n\ndef call():\n    """\n    exposes services. for example:\n    http://..../[app]/default/call/jsonrpc\n    decorate with @services.jsonrpc the functions to expose\n    supports xml, json, xmlrpc, jsonrpc, amfrpc, rss, csv\n    """\n    return service()\n\n\n\nresponse._vars=response._caller(index)\n'
p7
sS'snapshot'
p8
(dp9
S'exception'
p10
(dp11
S'__hash__'
p12
S"<method-wrapper '__hash__' of exceptions.NameError object>"
p13
sS'__setattr__'
p14
S"<method-wrapper '__setattr__' of exceptions.NameError object>"
p15
sS'__reduce_ex__'
p16
S'<built-in method __reduce_ex__ of exceptions.NameError object>'
p17
sS'__getslice__'
p18
S"<method-wrapper '__getslice__' of exceptions.NameError object>"
p19
sS'__getitem__'
p20
S"<method-wrapper '__getitem__' of exceptions.NameError object>"
p21
sS'__setstate__'
p22
S'<built-in method __setstate__ of exceptions.NameError object>'
p23
sS'args'
p24
S'("global name \'tabla\' is not defined",)'
p25
sS'__reduce__'
p26
S'<built-in method __reduce__ of exceptions.NameError object>'
p27
sS'__str__'
p28
S"<method-wrapper '__str__' of exceptions.NameError object>"
p29
sS'__format__'
p30
S'<built-in method __format__ of exceptions.NameError object>'
p31
sS'__getattribute__'
p32
S"<method-wrapper '__getattribute__' of exceptions.NameError object>"
p33
sS'__class__'
p34
S"<type 'exceptions.NameError'>"
p35
sS'__unicode__'
p36
S'<built-in method __unicode__ of exceptions.NameError object>'
p37
sS'__delattr__'
p38
S"<method-wrapper '__delattr__' of exceptions.NameError object>"
p39
sS'__subclasshook__'
p40
S'<built-in method __subclasshook__ of type object>'
p41
sS'__repr__'
p42
S"<method-wrapper '__repr__' of exceptions.NameError object>"
p43
sS'__dict__'
p44
S'{}'
p45
sS'__sizeof__'
p46
S'<built-in method __sizeof__ of exceptions.NameError object>'
p47
sS'__doc__'
p48
S"'Name not found globally.'"
p49
sS'__init__'
p50
S"<method-wrapper '__init__' of exceptions.NameError object>"
p51
sS'__new__'
p52
S'<built-in method __new__ of type object>'
p53
ssS'evalue'
p54
S"global name 'tabla' is not defined"
p55
sS'request'
p56
cgluon.html
XML_unpickle
p57
(S'sH_\x00\x00<div><table><tr><td style="font-weight:bold;vertical-align:top;">ajax</td><td style="vertical-align:top;">:</td><td><div>False</div></td></tr><tr><td style="font-weight:bold;vertical-align:top;">application</td><td style="vertical-align:top;">:</td><td><div>scada</div></td></tr><tr><td style="font-weight:bold;vertical-align:top;">args</td><td style="vertical-align:top;">:</td><td><div><table></table></div></td></tr><tr><td style="font-weight:bold;vertical-align:top;">cid</td><td style="vertical-align:top;">:</td><td><div>None</div></td></tr><tr><td style="font-weight:bold;vertical-align:top;">client</td><td style="vertical-align:top;">:</td><td><div>127.0.0.1</div></td></tr><tr><td style="font-weight:bold;vertical-align:top;">controller</td><td style="vertical-align:top;">:</td><td><div>default</div></td></tr><tr><td style="font-weight:bold;vertical-align:top;">cookies</td><td style="vertical-align:top;">:</td><td><div><table><tr><td style="font-weight:bold;vertical-align:top;">session_id_admin</td><td style="vertical-align:top;">:</td><td><div>127.0.0.1-2e11c0dc-a0ea-4f22-a5dd-0fac1000b91c<table><tr><td style="font-weight:bold;vertical-align:top;">comment</td><td style="vertical-align:top;">:</td><td><div></div></td></tr><tr><td style="font-weight:bold;vertical-align:top;">domain</td><td style="vertical-align:top;">:</td><td><div></div></td></tr><tr><td style="font-weight:bold;vertical-align:top;">expires</td><td style="vertical-align:top;">:</td><td><div></div></td></tr><tr><td style="font-weight:bold;vertical-align:top;">httponly</td><td style="vertical-align:top;">:</td><td><div></div></td></tr><tr><td style="font-weight:bold;vertical-align:top;">max-age</td><td style="vertical-align:top;">:</td><td><div></div></td></tr><tr><td style="font-weight:bold;vertical-align:top;">path</td><td style="vertical-align:top;">:</td><td><div></div></td></tr><tr><td style="font-weight:bold;vertical-align:top;">secure</td><td style="vertical-align:top;">:</td><td><div></div></td></tr><tr><td style="font-weight:bold;vertical-align:top;">version</td><td style="vertical-align:top;">:</td><td><div></div></td></tr></table></div></td></tr><tr><td style="font-weight:bold;vertical-align:top;">session_id_clase</td><td style="vertical-align:top;">:</td><td><div>127.0.0.1-0e53760d-2f3b-46ec-b918-a8c075d89f34<table><tr><td style="font-weight:bold;vertical-align:top;">comment</td><td style="vertical-align:top;">:</td><td><div></div></td></tr><tr><td style="font-weight:bold;vertical-align:top;">domain</td><td style="vertical-align:top;">:</td><td><div></div></td></tr><tr><td style="font-weight:bold;vertical-align:top;">expires</td><td style="vertical-align:top;">:</td><td><div></div></td></tr><tr><td style="font-weight:bold;vertical-align:top;">httponly</td><td style="vertical-align:top;">:</td><td><div></div></td></tr><tr><td style="font-weight:bold;vertical-align:top;">max-age</td><td style="vertical-align:top;">:</td><td><div></div></td></tr><tr><td style="font-weight:bold;vertical-align:top;">path</td><td style="vertical-align:top;">:</td><td><div></div></td></tr><tr><td style="font-weight:bold;vertical-align:top;">secure</td><td style="vertical-align:top;">:</td><td><div></div></td></tr><tr><td style="font-weight:bold;vertical-align:top;">version</td><td style="vertical-align:top;">:</td><td><div></div></td></tr></table></div></td></tr><tr><td style="font-weight:bold;vertical-align:top;">session_id_scada</td><td style="vertical-align:top;">:</td><td><div>127.0.0.1-03837db0-9862-4adf-8ef7-d43a3ea3bd02<table><tr><td style="font-weight:bold;vertical-align:top;">comment</td><td style="vertical-align:top;">:</td><td><div></div></td></tr><tr><td style="font-weight:bold;vertical-align:top;">domain</td><td style="vertical-align:top;">:</td><td><div></div></td></tr><tr><td style="font-weight:bold;vertical-align:top;">expires</td><td style="vertical-align:top;">:</td><td><div></div></td></tr><tr><td style="font-weight:bold;vertical-align:top;">httponly</td><td style="vertical-align:top;">:</td><td><div></div></td></tr><tr><td style="font-weight:bold;vertical-align:top;">max-age</td><td style="vertical-align:top;">:</td><td><div></div></td></tr><tr><td style="font-weight:bold;vertical-align:top;">path</td><td style="vertical-align:top;">:</td><td><div></div></td></tr><tr><td style="font-weight:bold;vertical-align:top;">secure</td><td style="vertical-align:top;">:</td><td><div></div></td></tr><tr><td style="font-weight:bold;vertical-align:top;">version</td><td style="vertical-align:top;">:</td><td><div></div></td></tr></table></div></td></tr><tr><td style="font-weight:bold;vertical-align:top;">session_id_welcome</td><td style="vertical-align:top;">:</td><td><div>127.0.0.1-0a23d8a9-7df0-4604-8c6b-26a09fa9f9d2<table><tr><td style="font-weight:bold;vertical-align:top;">comment</td><td style="vertical-align:top;">:</td><td><div></div></td></tr><tr><td style="font-weight:bold;vertical-align:top;">domain</td><td style="vertical-align:top;">:</td><td><div></div></td></tr><tr><td style="font-weight:bold;vertical-align:top;">expires</td><td style="vertical-align:top;">:</td><td><div></div></td></tr><tr><td style="font-weight:bold;vertical-align:top;">httponly</td><td style="vertical-align:top;">:</td><td><div></div></td></tr><tr><td style="font-weight:bold;vertical-align:top;">max-age</td><td style="vertical-align:top;">:</td><td><div></div></td></tr><tr><td style="font-weight:bold;vertical-align:top;">path</td><td style="vertical-align:top;">:</td><td><div></div></td></tr><tr><td style="font-weight:bold;vertical-align:top;">secure</td><td style="vertical-align:top;">:</td><td><div></div></td></tr><tr><td style="font-weight:bold;vertical-align:top;">version</td><td style="vertical-align:top;">:</td><td><div></div></td></tr></table></div></td></tr></table></div></td></tr><tr><td style="font-weight:bold;vertical-align:top;">env</td><td style="vertical-align:top;">:</td><td><div><table><tr><td style="font-weight:bold;vertical-align:top;">HTTP_ACCEPT</td><td style="vertical-align:top;">:</td><td><div>text/html,application/xhtml+xml,application/xml;q=0.9,*/*;q=0.8</div></td></tr><tr><td style="font-weight:bold;vertical-align:top;">HTTP_ACCEPT_ENCODING</td><td style="vertical-align:top;">:</td><td><div>gzip, deflate</div></td></tr><tr><td style="font-weight:bold;vertical-align:top;">HTTP_ACCEPT_LANGUAGE</td><td style="vertical-align:top;">:</td><td><div>es-ES,es;q=0.5</div></td></tr><tr><td style="font-weight:bold;vertical-align:top;">HTTP_CACHE_CONTROL</td><td style="vertical-align:top;">:</td><td><div>max-age=0</div></td></tr><tr><td style="font-weight:bold;vertical-align:top;">HTTP_CONNECTION</td><td style="vertical-align:top;">:</td><td><div>keep-alive</div></td></tr><tr><td style="font-weight:bold;vertical-align:top;">HTTP_COOKIE</td><td style="vertical-align:top;">:</td><td><div>session_id_welcome=127.0.0.1-0a23d8a9-7df0-4604-8c6b-26a09fa9f9d2; session_id_admin=127.0.0.1-2e11c0dc-a0ea-4f22-a5dd-0fac1000b91c; session_id_clase=127.0.0.1-0e53760d-2f3b-46ec-b918-a8c075d89f34; session_id_scada=127.0.0.1-03837db0-9862-4adf-8ef7-d43a3ea3bd02</div></td></tr><tr><td style="font-weight:bold;vertical-align:top;">HTTP_HOST</td><td style="vertical-align:top;">:</td><td><div>127.0.0.1:8000</div></td></tr><tr><td style="font-weight:bold;vertical-align:top;">HTTP_USER_AGENT</td><td style="vertical-align:top;">:</td><td><div>Mozilla/5.0 (X11; Linux x86_64; rv:41.0) Gecko/20100101 Firefox/41.0</div></td></tr><tr><td style="font-weight:bold;vertical-align:top;">PATH_INFO</td><td style="vertical-align:top;">:</td><td><div>/scada/</div></td></tr><tr><td style="font-weight:bold;vertical-align:top;">QUERY_STRING</td><td style="vertical-align:top;">:</td><td><div></div></td></tr><tr><td style="font-weight:bold;vertical-align:top;">REMOTE_ADDR</td><td style="vertical-align:top;">:</td><td><div>127.0.0.1</div></td></tr><tr><td style="font-weight:bold;vertical-align:top;">REMOTE_PORT</td><td style="vertical-align:top;">:</td><td><div>52728</div></td></tr><tr><td style="font-weight:bold;vertical-align:top;">REQUEST_METHOD</td><td style="vertical-align:top;">:</td><td><div>GET</div></td></tr><tr><td style="font-weight:bold;vertical-align:top;">SCRIPT_NAME</td><td style="vertical-align:top;">:</td><td><div></div></td></tr><tr><td style="font-weight:bold;vertical-align:top;">SERVER_NAME</td><td style="vertical-align:top;">:</td><td><div>aula31-pro</div></td></tr><tr><td style="font-weight:bold;vertical-align:top;">SERVER_PORT</td><td style="vertical-align:top;">:</td><td><div>8000</div></td></tr><tr><td style="font-weight:bold;vertical-align:top;">SERVER_PROTOCOL</td><td style="vertical-align:top;">:</td><td><div>HTTP/1.1</div></td></tr><tr><td style="font-weight:bold;vertical-align:top;">SERVER_SOFTWARE</td><td style="vertical-align:top;">:</td><td><div>Rocket 1.2.6</div></td></tr><tr><td style="font-weight:bold;vertical-align:top;">app_folders</td><td style="vertical-align:top;">:</td><td><div>set([&#x27;/home/jose/Escritorio/web2py/applications/welcome/&#x27;, &#x27;/home/jose/Escritorio/web2py/applications/scada/&#x27;, &#x27;/home/jose/Escritorio/web2py/applications/admin/&#x27;])</div></td></tr><tr><td style="font-weight:bold;vertical-align:top;">applications_parent</td><td style="vertical-align:top;">:</td><td><div>/home/jose/Escritorio/web2py</div></td></tr><tr><td style="font-weight:bold;vertical-align:top;">cmd_args</td><td style="vertical-align:top;">:</td><td><div><table></table></div></td></tr><tr><td style="font-weight:bold;vertical-align:top;">cmd_options</td><td style="vertical-align:top;">:</td><td><div>&lt;Values at 0x7f43c6ab73f8: {&#x27;verbose&#x27;: False, &#x27;ip&#x27;: &#x27;127.0.0.1&#x27;, &#x27;debuglevel&#x27;: 30, &#x27;with_scheduler&#x27;: False, &#x27;ips&#x27;: [&#x27;127.0.1.1&#x27;], &#x27;shutdown_timeout&#x27;: 5, &#x27;taskbar&#x27;: False, &#x27;with_coverage&#x27;: False, &#x27;scheduler_groups&#x27;: None, &#x27;port&#x27;: 8000, &#x27;maxthreads&#x27;: None, &#x27;softcron&#x27;: False, &#x27;server_name&#x27;: &#x27;aula31-pro&#x27;, &#x27;bpython&#x27;: False, &#x27;nogui&#x27;: False, &#x27;pid_filename&#x27;: &#x27;httpserver.pid&#x27;, &#x27;print_errors&#x27;: False, &#x27;extcron&#x27;: False, &#x27;runcron&#x27;: False, &#x27;run_system_tests&#x27;: False, &#x27;test&#x27;: None, &#x27;folder&#x27;: &#x27;/home/jose/Escritorio/web2py&#x27;, &#x27;config&#x27;: &#x27;&#x27;, &#x27;minthreads&#x27;: None, &#x27;shell&#x27;: None, &#x27;run&#x27;: &#x27;&#x27;, &#x27;log_filename&#x27;: &#x27;httpserver.log&#x27;, &#x27;profiler_dir&#x27;: None, &#x27;args&#x27;: [&#x27;&#x27;], &#x27;socket_timeout&#x27;: 5, &#x27;ssl_ca_certificate&#x27;: None, &#x27;scheduler&#x27;: None, &#x27;interfaces&#x27;: None, &#x27;ssl_private_key&#x27;: &#x27;&#x27;, &#x27;gae&#x27;: None, &#x27;password&#x27;: &#x27;&lt;ask&gt;&#x27;, &#x27;request_queue_size&#x27;: 5, &#x27;ssl_certificate&#x27;: &#x27;&#x27;, &#x27;cronjob&#x27;: False, &#x27;numthreads&#x27;: None, &#x27;quiet&#x27;: False, &#x27;import_models&#x27;: False, &#x27;timeout&#x27;: 10, &#x27;plain&#x27;: False, &#x27;nobanner&#x27;: False}&gt;</div></td></tr><tr><td style="font-weight:bold;vertical-align:top;">db_sessions</td><td style="vertical-align:top;">:</td><td><div>set([])</div></td></tr><tr><td style="font-weight:bold;vertical-align:top;">debugging</td><td style="vertical-align:top;">:</td><td><div>False</div></td></tr><tr><td style="font-weight:bold;vertical-align:top;">gluon_parent</td><td style="vertical-align:top;">:</td><td><div>/home/jose/Escritorio/web2py</div></td></tr><tr><td style="font-weight:bold;vertical-align:top;">http_accept</td><td style="vertical-align:top;">:</td><td><div>text/html,application/xhtml+xml,application/xml;q=0.9,*/*;q=0.8</div></td></tr><tr><td style="font-weight:bold;vertical-align:top;">http_accept_encoding</td><td style="vertical-align:top;">:</td><td><div>gzip, deflate</div></td></tr><tr><td style="font-weight:bold;vertical-align:top;">http_accept_language</td><td style="vertical-align:top;">:</td><td><div>es-ES,es;q=0.5</div></td></tr><tr><td style="font-weight:bold;vertical-align:top;">http_cache_control</td><td style="vertical-align:top;">:</td><td><div>max-age=0</div></td></tr><tr><td style="font-weight:bold;vertical-align:top;">http_connection</td><td style="vertical-align:top;">:</td><td><div>keep-alive</div></td></tr><tr><td style="font-weight:bold;vertical-align:top;">http_cookie</td><td style="vertical-align:top;">:</td><td><div>session_id_welcome=127.0.0.1-0a23d8a9-7df0-4604-8c6b-26a09fa9f9d2; session_id_admin=127.0.0.1-2e11c0dc-a0ea-4f22-a5dd-0fac1000b91c; session_id_clase=127.0.0.1-0e53760d-2f3b-46ec-b918-a8c075d89f34; session_id_scada=127.0.0.1-03837db0-9862-4adf-8ef7-d43a3ea3bd02</div></td></tr><tr><td style="font-weight:bold;vertical-align:top;">http_host</td><td style="vertical-align:top;">:</td><td><div>127.0.0.1:8000</div></td></tr><tr><td style="font-weight:bold;vertical-align:top;">http_user_agent</td><td style="vertical-align:top;">:</td><td><div>Mozilla/5.0 (X11; Linux x86_64; rv:41.0) Gecko/20100101 Firefox/41.0</div></td></tr><tr><td style="font-weight:bold;vertical-align:top;">is_jython</td><td style="vertical-align:top;">:</td><td><div>False</div></td></tr><tr><td style="font-weight:bold;vertical-align:top;">is_pypy</td><td style="vertical-align:top;">:</td><td><div>False</div></td></tr><tr><td style="font-weight:bold;vertical-align:top;">is_source</td><td style="vertical-align:top;">:</td><td><div>True</div></td></tr><tr><td style="font-weight:bold;vertical-align:top;">local_hosts</td><td style="vertical-align:top;">:</td><td><div><table><tr><td><div>127.0.1.1</div></td></tr><tr><td><div>::1</div></td></tr><tr><td><div>aula31-pro</div></td></tr><tr><td><div>::ffff:127.0.0.1</div></td></tr><tr><td><div>127.0.0.1</div></td></tr></table></div></td></tr><tr><td style="font-weight:bold;vertical-align:top;">path_info</td><td style="vertical-align:top;">:</td><td><div>/scada/</div></td></tr><tr><td style="font-weight:bold;vertical-align:top;">query_string</td><td style="vertical-align:top;">:</td><td><div></div></td></tr><tr><td style="font-weight:bold;vertical-align:top;">remote_addr</td><td style="vertical-align:top;">:</td><td><div>127.0.0.1</div></td></tr><tr><td style="font-weight:bold;vertical-align:top;">remote_port</td><td style="vertical-align:top;">:</td><td><div>52728</div></td></tr><tr><td style="font-weight:bold;vertical-align:top;">request_method</td><td style="vertical-align:top;">:</td><td><div>GET</div></td></tr><tr><td style="font-weight:bold;vertical-align:top;">request_uri</td><td style="vertical-align:top;">:</td><td><div>/scada/</div></td></tr><tr><td style="font-weight:bold;vertical-align:top;">script_name</td><td style="vertical-align:top;">:</td><td><div></div></td></tr><tr><td style="font-weight:bold;vertical-align:top;">server_name</td><td style="vertical-align:top;">:</td><td><div>aula31-pro</div></td></tr><tr><td style="font-weight:bold;vertical-align:top;">server_port</td><td style="vertical-align:top;">:</td><td><div>8000</div></td></tr><tr><td style="font-weight:bold;vertical-align:top;">server_protocol</td><td style="vertical-align:top;">:</td><td><div>HTTP/1.1</div></td></tr><tr><td style="font-weight:bold;vertical-align:top;">server_software</td><td style="vertical-align:top;">:</td><td><div>Rocket 1.2.6</div></td></tr><tr><td style="font-weight:bold;vertical-align:top;">web2py_path</td><td style="vertical-align:top;">:</td><td><div>/home/jose/Escritorio/web2py</div></td></tr><tr><td style="font-weight:bold;vertical-align:top;">web2py_version</td><td style="vertical-align:top;">:</td><td><div>2.12.3-stable+timestamp.2015.08.19.00.18.03</div></td></tr><tr><td style="font-weight:bold;vertical-align:top;">wsgi.errors</td><td style="vertical-align:top;">:</td><td><div>&lt;open file &#x27;&lt;stderr&gt;&#x27;, mode &#x27;w&#x27; at 0x7f43cedb51e0&gt;</div></td></tr><tr><td style="font-weight:bold;vertical-align:top;">wsgi.file_wrapper</td><td style="vertical-align:top;">:</td><td><div>&lt;class wsgiref.util.FileWrapper at 0x7f43c6d517a0&gt;</div></td></tr><tr><td style="font-weight:bold;vertical-align:top;">wsgi.input</td><td style="vertical-align:top;">:</td><td><div>&lt;socket._fileobject object at 0x7f43c43577d0&gt;</div></td></tr><tr><td style="font-weight:bold;vertical-align:top;">wsgi.multiprocess</td><td style="vertical-align:top;">:</td><td><div>False</div></td></tr><tr><td style="font-weight:bold;vertical-align:top;">wsgi.multithread</td><td style="vertical-align:top;">:</td><td><div>True</div></td></tr><tr><td style="font-weight:bold;vertical-align:top;">wsgi.run_once</td><td style="vertical-align:top;">:</td><td><div>False</div></td></tr><tr><td style="font-weight:bold;vertical-align:top;">wsgi.url_scheme</td><td style="vertical-align:top;">:</td><td><div>http</div></td></tr><tr><td style="font-weight:bold;vertical-align:top;">wsgi.version</td><td style="vertical-align:top;">:</td><td><div><table><tr><td><div>1</div></td></tr><tr><td><div>0</div></td></tr></table></div></td></tr><tr><td style="font-weight:bold;vertical-align:top;">wsgi_errors</td><td style="vertical-align:top;">:</td><td><div>&lt;open file &#x27;&lt;stderr&gt;&#x27;, mode &#x27;w&#x27; at 0x7f43cedb51e0&gt;</div></td></tr><tr><td style="font-weight:bold;vertical-align:top;">wsgi_file_wrapper</td><td style="vertical-align:top;">:</td><td><div>&lt;class wsgiref.util.FileWrapper at 0x7f43c6d517a0&gt;</div></td></tr><tr><td style="font-weight:bold;vertical-align:top;">wsgi_input</td><td style="vertical-align:top;">:</td><td><div>&lt;socket._fileobject object at 0x7f43c43577d0&gt;</div></td></tr><tr><td style="font-weight:bold;vertical-align:top;">wsgi_multiprocess</td><td style="vertical-align:top;">:</td><td><div>False</div></td></tr><tr><td style="font-weight:bold;vertical-align:top;">wsgi_multithread</td><td style="vertical-align:top;">:</td><td><div>True</div></td></tr><tr><td style="font-weight:bold;vertical-align:top;">wsgi_run_once</td><td style="vertical-align:top;">:</td><td><div>False</div></td></tr><tr><td style="font-weight:bold;vertical-align:top;">wsgi_url_scheme</td><td style="vertical-align:top;">:</td><td><div>http</div></td></tr><tr><td style="font-weight:bold;vertical-align:top;">wsgi_version</td><td style="vertical-align:top;">:</td><td><div><table><tr><td><div>1</div></td></tr><tr><td><div>0</div></td></tr></table></div></td></tr></table></div></td></tr><tr><td style="font-weight:bold;vertical-align:top;">extension</td><td style="vertical-align:top;">:</td><td><div>html</div></td></tr><tr><td style="font-weight:bold;vertical-align:top;">folder</td><td style="vertical-align:top;">:</td><td><div>/home/jose/Escritorio/web2py/applications/scada/</div></td></tr><tr><td style="font-weight:bold;vertical-align:top;">function</td><td style="vertical-align:top;">:</td><td><div>index</div></td></tr><tr><td style="font-weight:bold;vertical-align:top;">global_settings</td><td style="vertical-align:top;">:</td><td><div><table><tr><td style="font-weight:bold;vertical-align:top;">app_folders</td><td style="vertical-align:top;">:</td><td><div>set([&#x27;/home/jose/Escritorio/web2py/applications/welcome/&#x27;, &#x27;/home/jose/Escritorio/web2py/applications/scada/&#x27;, &#x27;/home/jose/Escritorio/web2py/applications/admin/&#x27;])</div></td></tr><tr><td style="font-weight:bold;vertical-align:top;">applications_parent</td><td style="vertical-align:top;">:</td><td><div>/home/jose/Escritorio/web2py</div></td></tr><tr><td style="font-weight:bold;vertical-align:top;">cmd_args</td><td style="vertical-align:top;">:</td><td><div><table></table></div></td></tr><tr><td style="font-weight:bold;vertical-align:top;">cmd_options</td><td style="vertical-align:top;">:</td><td><div>&lt;Values at 0x7f43c6ab73f8: {&#x27;verbose&#x27;: False, &#x27;ip&#x27;: &#x27;127.0.0.1&#x27;, &#x27;debuglevel&#x27;: 30, &#x27;with_scheduler&#x27;: False, &#x27;ips&#x27;: [&#x27;127.0.1.1&#x27;], &#x27;shutdown_timeout&#x27;: 5, &#x27;taskbar&#x27;: False, &#x27;with_coverage&#x27;: False, &#x27;scheduler_groups&#x27;: None, &#x27;port&#x27;: 8000, &#x27;maxthreads&#x27;: None, &#x27;softcron&#x27;: False, &#x27;server_name&#x27;: &#x27;aula31-pro&#x27;, &#x27;bpython&#x27;: False, &#x27;nogui&#x27;: False, &#x27;pid_filename&#x27;: &#x27;httpserver.pid&#x27;, &#x27;print_errors&#x27;: False, &#x27;extcron&#x27;: False, &#x27;runcron&#x27;: False, &#x27;run_system_tests&#x27;: False, &#x27;test&#x27;: None, &#x27;folder&#x27;: &#x27;/home/jose/Escritorio/web2py&#x27;, &#x27;config&#x27;: &#x27;&#x27;, &#x27;minthreads&#x27;: None, &#x27;shell&#x27;: None, &#x27;run&#x27;: &#x27;&#x27;, &#x27;log_filename&#x27;: &#x27;httpserver.log&#x27;, &#x27;profiler_dir&#x27;: None, &#x27;args&#x27;: [&#x27;&#x27;], &#x27;socket_timeout&#x27;: 5, &#x27;ssl_ca_certificate&#x27;: None, &#x27;scheduler&#x27;: None, &#x27;interfaces&#x27;: None, &#x27;ssl_private_key&#x27;: &#x27;&#x27;, &#x27;gae&#x27;: None, &#x27;password&#x27;: &#x27;&lt;ask&gt;&#x27;, &#x27;request_queue_size&#x27;: 5, &#x27;ssl_certificate&#x27;: &#x27;&#x27;, &#x27;cronjob&#x27;: False, &#x27;numthreads&#x27;: None, &#x27;quiet&#x27;: False, &#x27;import_models&#x27;: False, &#x27;timeout&#x27;: 10, &#x27;plain&#x27;: False, &#x27;nobanner&#x27;: False}&gt;</div></td></tr><tr><td style="font-weight:bold;vertical-align:top;">db_sessions</td><td style="vertical-align:top;">:</td><td><div>set([])</div></td></tr><tr><td style="font-weight:bold;vertical-align:top;">debugging</td><td style="vertical-align:top;">:</td><td><div>False</div></td></tr><tr><td style="font-weight:bold;vertical-align:top;">gluon_parent</td><td style="vertical-align:top;">:</td><td><div>/home/jose/Escritorio/web2py</div></td></tr><tr><td style="font-weight:bold;vertical-align:top;">is_jython</td><td style="vertical-align:top;">:</td><td><div>False</div></td></tr><tr><td style="font-weight:bold;vertical-align:top;">is_pypy</td><td style="vertical-align:top;">:</td><td><div>False</div></td></tr><tr><td style="font-weight:bold;vertical-align:top;">is_source</td><td style="vertical-align:top;">:</td><td><div>True</div></td></tr><tr><td style="font-weight:bold;vertical-align:top;">local_hosts</td><td style="vertical-align:top;">:</td><td><div><table><tr><td><div>127.0.1.1</div></td></tr><tr><td><div>::1</div></td></tr><tr><td><div>aula31-pro</div></td></tr><tr><td><div>::ffff:127.0.0.1</div></td></tr><tr><td><div>127.0.0.1</div></td></tr></table></div></td></tr><tr><td style="font-weight:bold;vertical-align:top;">web2py_version</td><td style="vertical-align:top;">:</td><td><div>2.12.3-stable+timestamp.2015.08.19.00.18.03</div></td></tr></table></div></td></tr><tr><td style="font-weight:bold;vertical-align:top;">is_https</td><td style="vertical-align:top;">:</td><td><div>False</div></td></tr><tr><td style="font-weight:bold;vertical-align:top;">is_local</td><td style="vertical-align:top;">:</td><td><div>True</div></td></tr><tr><td style="font-weight:bold;vertical-align:top;">is_restful</td><td style="vertical-align:top;">:</td><td><div>False</div></td></tr><tr><td style="font-weight:bold;vertical-align:top;">is_sheduler</td><td style="vertical-align:top;">:</td><td><div>None</div></td></tr><tr><td style="font-weight:bold;vertical-align:top;">is_shell</td><td style="vertical-align:top;">:</td><td><div>None</div></td></tr><tr><td style="font-weight:bold;vertical-align:top;">now</td><td style="vertical-align:top;">:</td><td><div>datetime.datetime(2015, 10, 14, 9, 8, 16, 428510)</div></td></tr><tr><td style="font-weight:bold;vertical-align:top;">raw_args</td><td style="vertical-align:top;">:</td><td><div></div></td></tr><tr><td style="font-weight:bold;vertical-align:top;">raw_extension</td><td style="vertical-align:top;">:</td><td><div>None</div></td></tr><tr><td style="font-weight:bold;vertical-align:top;">url</td><td style="vertical-align:top;">:</td><td><div>/scada/</div></td></tr><tr><td style="font-weight:bold;vertical-align:top;">utcnow</td><td style="vertical-align:top;">:</td><td><div>datetime.datetime(2015, 10, 14, 7, 8, 16, 428531)</div></td></tr><tr><td style="font-weight:bold;vertical-align:top;">wsgi</td><td style="vertical-align:top;">:</td><td><div>&lt;gluon.main.LazyWSGI object at 0x7f43b43864d0&gt;</div></td></tr></table></div>'
tRp58
sS'frames'
p59
(lp60
(dp61
S'file'
p62
S'/home/jose/Escritorio/web2py/gluon/restricted.py'
p63
sS'dump'
p64
(dp65
S'environment'
p66
S"{'A': <class 'gluon.html.A'>, 'ANY_OF': <class 'gluon.validators.ANY_OF'>, 'ASSIGNJS': <function ASSIGNJS>, 'AppConfig': <function AppConfig>, 'Auth': <class 'gluon.tools.Auth'>, 'B': <class 'gluon.html.B'>, 'BEAUTIFY': <class 'gluon.html.BEAUTIFY'>, 'BODY': <class 'gluon.html.BODY'>, 'BR': <class 'gluon.html.BR'>, 'BUTTON': <class 'gluon.html.BUTTON'>, ...}"
p67
sS'ccode'
p68
S'<code object <module> at 0x7f43c41e54b0, file "/...lications/scada/controllers/default.py", line 11>'
p69
ssS'lnum'
p70
I227
sS'lines'
p71
(dp72
I224
S'            ccode = code'
p73
sI225
S'        else:'
p74
sI226
S'            ccode = compile2(code, layer)'
p75
sI227
S'        exec ccode in environment'
p76
sI228
S'    except HTTP:'
p77
sI229
S'        raise'
p78
sI230
S'    except RestrictedError:'
p79
sI231
S'        # do not encapsulate (obfuscate) the original RestrictedError'
p80
sI222
S'    try:'
p81
sI223
S'        if isinstance(code, types.CodeType):'
p82
ssS'call'
p83
S"(code='# -*- coding: utf-8 -*-\\n# this file is released ...vice()\\n\\n\\n\\nresponse._vars=response._caller(index)\\n', environment={'A': <class 'gluon.html.A'>, 'ANY_OF': <class 'gluon.validators.ANY_OF'>, 'ASSIGNJS': <function ASSIGNJS>, 'AppConfig': <function AppConfig>, 'Auth': <class 'gluon.tools.Auth'>, 'B': <class 'gluon.html.B'>, 'BEAUTIFY': <class 'gluon.html.BEAUTIFY'>, 'BODY': <class 'gluon.html.BODY'>, 'BR': <class 'gluon.html.BR'>, 'BUTTON': <class 'gluon.html.BUTTON'>, ...}, layer='/home/jose/Escritorio/web2py/applications/scada/controllers/default.py')"
p84
sS'func'
p85
S'restricted'
p86
sa(dp87
g62
S'/home/jose/Escritorio/web2py/applications/scada/controllers/default.py'
p88
sg64
(dp89
sg70
I56
sg71
(dp90
I45
S'def call():'
p91
sI46
S'    """'
p92
sI47
S'    exposes services. for example:'
p93
sI48
S'    http://..../[app]/default/call/jsonrpc'
p94
sI49
S'    decorate with @services.jsonrpc the functions to expose'
p95
sI50
S'    supports xml, json, xmlrpc, jsonrpc, amfrpc, rss, csv'
p96
sI51
S'    """'
p97
sI52
S'    return service()'
p98
sI53
S''
sI54
S''
ssg83
S'()'
p99
sg85
S'<module>'
p100
sa(dp101
g62
S'/home/jose/Escritorio/web2py/gluon/globals.py'
p102
sg64
(dp103
S'self'
p104
S'undefined'
p105
sS'f'
S'<function index>'
p106
ssg70
I412
sg71
(dp107
I416
S"        self.generic_patterns = ['*']"
p108
sI407
S"        self.flash = ''            # used by the default view layout"
p109
sI408
S'        self.meta = Storage()      # used by web2py_ajax.html'
p110
sI409
S'        self.menu = []             # used by the default view layout'
p111
sI410
S'        self.files = []            # used by web2py_ajax.html'
p112
sI411
S'        self._vars = None'
p113
sI412
S'        self._caller = lambda f: f()'
p114
sI413
S'        self._view_environment = None'
p115
sI414
S'        self._custom_commit = None'
p116
sI415
S'        self._custom_rollback = None'
p117
ssg83
S'(f=<function index>)'
p118
sg85
S'<lambda>'
p119
sa(dp120
g62
S'/home/jose/Escritorio/web2py/applications/scada/controllers/default.py'
p121
sg64
(dp122
S'datos'
p123
S'None'
p124
sS'tabla'
p125
g105
sS'builtindict'
p126
S"<type 'dict'>"
p127
ssg70
I14
sg71
(dp128
I9
S'#########################################################################'
p129
sI10
S''
sI11
S'def index():'
p130
sI12
S'    datos = None'
p131
sI13
S''
sI14
S'    return dict(datos=tabla)'
p132
sI15
S''
sI16
S''
sI17
S'def user():'
p133
sI18
S'    """'
p134
ssg83
S'()'
p135
sg85
S'index'
p136
sasS'pyver'
p137
S'Python 2.7.9: /usr/bin/python (prefix: /usr)'
p138
sS'session'
p139
g57
(S's9\x01\x00\x00<div><table><tr><td style="font-weight:bold;vertical-align:top;">last_orderby</td><td style="vertical-align:top;">:</td><td><div>None</div></td></tr><tr><td style="font-weight:bold;vertical-align:top;">last_query</td><td style="vertical-align:top;">:</td><td><div>db.lecturas.id&gt;0</div></td></tr></table></div>'
tRp140
sS'etype'
p141
S"<type 'exceptions.NameError'>"
p142
sS'date'
p143
S'Wed Oct 14 09:08:16 2015'
p144
sS'response'
p145
g57
(S's\x86\x1e\x00\x00<div><table><tr><td style="font-weight:bold;vertical-align:top;">body</td><td style="vertical-align:top;">:</td><td><div>&lt;cStringIO.StringO object at 0x7f43b4109a78&gt;</div></td></tr><tr><td style="font-weight:bold;vertical-align:top;">cookies</td><td style="vertical-align:top;">:</td><td><div><table><tr><td style="font-weight:bold;vertical-align:top;">session_id_scada</td><td style="vertical-align:top;">:</td><td><div>127.0.0.1-03837db0-9862-4adf-8ef7-d43a3ea3bd02<table><tr><td style="font-weight:bold;vertical-align:top;">comment</td><td style="vertical-align:top;">:</td><td><div></div></td></tr><tr><td style="font-weight:bold;vertical-align:top;">domain</td><td style="vertical-align:top;">:</td><td><div></div></td></tr><tr><td style="font-weight:bold;vertical-align:top;">expires</td><td style="vertical-align:top;">:</td><td><div></div></td></tr><tr><td style="font-weight:bold;vertical-align:top;">httponly</td><td style="vertical-align:top;">:</td><td><div></div></td></tr><tr><td style="font-weight:bold;vertical-align:top;">max-age</td><td style="vertical-align:top;">:</td><td><div></div></td></tr><tr><td style="font-weight:bold;vertical-align:top;">path</td><td style="vertical-align:top;">:</td><td><div>/</div></td></tr><tr><td style="font-weight:bold;vertical-align:top;">secure</td><td style="vertical-align:top;">:</td><td><div></div></td></tr><tr><td style="font-weight:bold;vertical-align:top;">version</td><td style="vertical-align:top;">:</td><td><div></div></td></tr></table></div></td></tr></table></div></td></tr><tr><td style="font-weight:bold;vertical-align:top;">delimiters</td><td style="vertical-align:top;">:</td><td><div><table><tr><td><div>{{</div></td></tr><tr><td><div>}}</div></td></tr></table></div></td></tr><tr><td style="font-weight:bold;vertical-align:top;">files</td><td style="vertical-align:top;">:</td><td><div><table></table></div></td></tr><tr><td style="font-weight:bold;vertical-align:top;">flash</td><td style="vertical-align:top;">:</td><td><div></div></td></tr><tr><td style="font-weight:bold;vertical-align:top;">form_label_separator</td><td style="vertical-align:top;">:</td><td><div></div></td></tr><tr><td style="font-weight:bold;vertical-align:top;">formstyle</td><td style="vertical-align:top;">:</td><td><div>bootstrap3_inline</div></td></tr><tr><td style="font-weight:bold;vertical-align:top;">generic_patterns</td><td style="vertical-align:top;">:</td><td><div><table><tr><td><div>*</div></td></tr></table></div></td></tr><tr><td style="font-weight:bold;vertical-align:top;">google_analytics_id</td><td style="vertical-align:top;">:</td><td><div>None</div></td></tr><tr><td style="font-weight:bold;vertical-align:top;">headers</td><td style="vertical-align:top;">:</td><td><div><table><tr><td style="font-weight:bold;vertical-align:top;">X-Powered-By</td><td style="vertical-align:top;">:</td><td><div>web2py</div></td></tr></table></div></td></tr><tr><td style="font-weight:bold;vertical-align:top;">logo</td><td style="vertical-align:top;">:</td><td><div><a class="navbar-brand" href="http://www.web2py.com/" id="web2py-logo"><b>web<span>2</span>py</b>&trade;&nbsp;</a></div></td></tr><tr><td style="font-weight:bold;vertical-align:top;">menu</td><td style="vertical-align:top;">:</td><td><div><table><tr><td><div><table><tr><td><div>Se\xc3\xb1ales</div></td></tr><tr><td><div>False</div></td></tr><tr><td><div>/scada/default/index</div></td></tr><tr><td><div><table></table></div></td></tr></table></div></td></tr><tr><td><div><table><tr><td><div>aguas residuales</div></td></tr><tr><td><div>False</div></td></tr><tr><td><div>/scada/default/index</div></td></tr><tr><td><div><table></table></div></td></tr></table></div></td></tr></table></div></td></tr><tr><td style="font-weight:bold;vertical-align:top;">meta</td><td style="vertical-align:top;">:</td><td><div><table><tr><td style="font-weight:bold;vertical-align:top;">author</td><td style="vertical-align:top;">:</td><td><div>Your Name &lt;you@example.com&gt;</div></td></tr><tr><td style="font-weight:bold;vertical-align:top;">description</td><td style="vertical-align:top;">:</td><td><div>a cool new app</div></td></tr><tr><td style="font-weight:bold;vertical-align:top;">generator</td><td style="vertical-align:top;">:</td><td><div>Web2py Web Framework</div></td></tr><tr><td style="font-weight:bold;vertical-align:top;">keywords</td><td style="vertical-align:top;">:</td><td><div>web2py, python, framework</div></td></tr></table></div></td></tr><tr><td style="font-weight:bold;vertical-align:top;">models_to_run</td><td style="vertical-align:top;">:</td><td><div><table><tr><td><div>^\\w+\\.py$</div></td></tr><tr><td><div>^default/\\w+\\.py$</div></td></tr><tr><td><div>^default/index/\\w+\\.py$</div></td></tr></table></div></td></tr><tr><td style="font-weight:bold;vertical-align:top;">postprocessing</td><td style="vertical-align:top;">:</td><td><div><table></table></div></td></tr><tr><td style="font-weight:bold;vertical-align:top;">session_client</td><td style="vertical-align:top;">:</td><td><div>127.0.0.1</div></td></tr><tr><td style="font-weight:bold;vertical-align:top;">session_cookie_compression_level</td><td style="vertical-align:top;">:</td><td><div>None</div></td></tr><tr><td style="font-weight:bold;vertical-align:top;">session_cookie_expires</td><td style="vertical-align:top;">:</td><td><div>None</div></td></tr><tr><td style="font-weight:bold;vertical-align:top;">session_cookie_key</td><td style="vertical-align:top;">:</td><td><div>None</div></td></tr><tr><td style="font-weight:bold;vertical-align:top;">session_data_name</td><td style="vertical-align:top;">:</td><td><div>session_data_scada</div></td></tr><tr><td style="font-weight:bold;vertical-align:top;">session_file</td><td style="vertical-align:top;">:</td><td><div>&lt;open file &#x27;/home/jose/Escritorio/web2py/applications/scada/sessions/0da/0c0/127.0.0.1-03837db0-9862-4adf-8ef7-d43a3ea3bd02&#x27;, mode &#x27;rb+&#x27; at 0x7f43c42b0c90&gt;</div></td></tr><tr><td style="font-weight:bold;vertical-align:top;">session_filename</td><td style="vertical-align:top;">:</td><td><div>/home/jose/Escritorio/web2py/applications/scada/sessions/127.0.0.1-03837db0-9862-4adf-8ef7-d43a3ea3bd02</div></td></tr><tr><td style="font-weight:bold;vertical-align:top;">session_hash</td><td style="vertical-align:top;">:</td><td><div>13b9a610e6fe8b37a812a9e9f68fdaa7</div></td></tr><tr><td style="font-weight:bold;vertical-align:top;">session_id</td><td style="vertical-align:top;">:</td><td><div>127.0.0.1-03837db0-9862-4adf-8ef7-d43a3ea3bd02</div></td></tr><tr><td style="font-weight:bold;vertical-align:top;">session_id_name</td><td style="vertical-align:top;">:</td><td><div>session_id_scada</div></td></tr><tr><td style="font-weight:bold;vertical-align:top;">session_locked</td><td style="vertical-align:top;">:</td><td><div>True</div></td></tr><tr><td style="font-weight:bold;vertical-align:top;">session_masterapp</td><td style="vertical-align:top;">:</td><td><div>scada</div></td></tr><tr><td style="font-weight:bold;vertical-align:top;">session_new</td><td style="vertical-align:top;">:</td><td><div>False</div></td></tr><tr><td style="font-weight:bold;vertical-align:top;">session_storage_type</td><td style="vertical-align:top;">:</td><td><div>file</div></td></tr><tr><td style="font-weight:bold;vertical-align:top;">status</td><td style="vertical-align:top;">:</td><td><div>200</div></td></tr><tr><td style="font-weight:bold;vertical-align:top;">subtitle</td><td style="vertical-align:top;">:</td><td><div></div></td></tr><tr><td style="font-weight:bold;vertical-align:top;">title</td><td style="vertical-align:top;">:</td><td><div>Scada</div></td></tr><tr><td style="font-weight:bold;vertical-align:top;">view</td><td style="vertical-align:top;">:</td><td><div>default/index.html</div></td></tr></table></div>'
tRp146
sS'locals'
p147
(dp148
S'datos'
p149
S'None'
p150
sssS'traceback'
p151
S'Traceback (most recent call last):\n  File "/home/jose/Escritorio/web2py/gluon/restricted.py", line 227, in restricted\n    exec ccode in environment\n  File "/home/jose/Escritorio/web2py/applications/scada/controllers/default.py", line 56, in <module>\n  File "/home/jose/Escritorio/web2py/gluon/globals.py", line 412, in <lambda>\n    self._caller = lambda f: f()\n  File "/home/jose/Escritorio/web2py/applications/scada/controllers/default.py", line 14, in index\n    return dict(datos=tabla)\nNameError: global name \'tabla\' is not defined\n'
p152
s.